target datalayout = "e-m:e-p270:32:32-p271:32:32-p272:64:64-i64:64-i128:128-f80:128-n8:16:32:64-S128"
target triple = "x86_64-pc-linux-gnu"

%struct._generic_N_Vector = type { ptr, ptr, ptr }
%struct._N_VectorContent_Serial = type { i64, i32, ptr }

; Function Attrs: nounwind uwtable
define internal double @vtrue(double noundef %0, ptr noundef %1) #0 {
  %3 = alloca double, align 8
  %4 = alloca ptr, align 8
  store double %0, ptr %3, align 8, !tbaa !11
  store ptr %1, ptr %4, align 8, !tbaa !17
  %5 = load double, ptr %3, align 8, !tbaa !11
  %6 = load ptr, ptr %4, align 8, !tbaa !17
  %7 = call double @s(double noundef %5, ptr noundef %6)
  %8 = fadd double 2.000000e+00, %7
  %9 = fcmp ole double %8, 0.000000e+00
  br i1 %9, label %10, label %11

10:                                               ; preds = %2
  br label %17

11:                                               ; preds = %2
  %12 = load double, ptr %3, align 8, !tbaa !11
  %13 = load ptr, ptr %4, align 8, !tbaa !17
  %14 = call double @s(double noundef %12, ptr noundef %13)
  %15 = fadd double 2.000000e+00, %14
  %16 = call double @sqrt(double noundef %15) #6, !tbaa !4
  br label %17

17:                                               ; preds = %11, %10
  %18 = phi double [ 0.000000e+00, %10 ], [ %16, %11 ]
  ret double %18
}

; Function Attrs: nounwind uwtable
define internal double @sdot(double noundef %0, ptr noundef %1) #0 {
  %3 = alloca double, align 8
  %4 = alloca ptr, align 8
  %5 = alloca ptr, align 8
  store double %0, ptr %3, align 8, !tbaa !11
  store ptr %1, ptr %4, align 8, !tbaa !17
  call void @llvm.lifetime.start.p0(i64 8, ptr %5) #6
  %6 = load ptr, ptr %4, align 8, !tbaa !17
  store ptr %6, ptr %5, align 8, !tbaa !36
  %7 = load ptr, ptr %5, align 8, !tbaa !36
  %8 = getelementptr inbounds double, ptr %7, i64 1
  %9 = load double, ptr %8, align 8, !tbaa !11
  %10 = fneg double %9
  %11 = load ptr, ptr %5, align 8, !tbaa !36
  %12 = getelementptr inbounds double, ptr %11, i64 1
  %13 = load double, ptr %12, align 8, !tbaa !11
  %14 = load double, ptr %3, align 8, !tbaa !11
  %15 = fmul double %13, %14
  %16 = call double @sin(double noundef %15) #6, !tbaa !4
  %17 = fmul double %10, %16
  call void @llvm.lifetime.end.p0(i64 8, ptr %5) #6
  ret double %17
}

; Function Attrs: nounwind uwtable
define internal double @s(double noundef %0, ptr noundef %1) #0 {
  %3 = alloca double, align 8
  %4 = alloca ptr, align 8
  %5 = alloca ptr, align 8
  store double %0, ptr %3, align 8, !tbaa !11
  store ptr %1, ptr %4, align 8, !tbaa !17
  call void @llvm.lifetime.start.p0(i64 8, ptr %5) #6
  %6 = load ptr, ptr %4, align 8, !tbaa !17
  store ptr %6, ptr %5, align 8, !tbaa !36
  %7 = load ptr, ptr %5, align 8, !tbaa !36
  %8 = getelementptr inbounds double, ptr %7, i64 1
  %9 = load double, ptr %8, align 8, !tbaa !11
  %10 = load double, ptr %3, align 8, !tbaa !11
  %11 = fmul double %9, %10
  %12 = call double @cos(double noundef %11) #6, !tbaa !4
  call void @llvm.lifetime.end.p0(i64 8, ptr %5) #6
  ret double %12
}

; Function Attrs: nounwind uwtable
define internal double @r(double noundef %0, ptr noundef %1) #0 {
  %3 = alloca double, align 8
  %4 = alloca ptr, align 8
  store double %0, ptr %3, align 8, !tbaa !11
  store ptr %1, ptr %4, align 8, !tbaa !17
  %5 = load double, ptr %3, align 8, !tbaa !11
  %6 = call double @cos(double noundef %5) #6, !tbaa !4
  %7 = fmul double 5.000000e-01, %6
  ret double %7
}

; Function Attrs: nounwind uwtable
define internal i32 @ff(double noundef %0, ptr noundef %1, ptr noundef %2, ptr noundef %3) #0 {
  %5 = alloca double, align 8
  %6 = alloca ptr, align 8
  %7 = alloca ptr, align 8
  %8 = alloca ptr, align 8
  %9 = alloca ptr, align 8
  %10 = alloca double, align 8
  %11 = alloca double, align 8
  %12 = alloca double, align 8
  %13 = alloca double, align 8
  %14 = alloca double, align 8
  store double %0, ptr %5, align 8, !tbaa !11
  store ptr %1, ptr %6, align 8, !tbaa !15
  store ptr %2, ptr %7, align 8, !tbaa !15
  store ptr %3, ptr %8, align 8, !tbaa !17
  call void @llvm.lifetime.start.p0(i64 8, ptr %9) #6
  %15 = load ptr, ptr %8, align 8, !tbaa !17
  store ptr %15, ptr %9, align 8, !tbaa !36
  call void @llvm.lifetime.start.p0(i64 8, ptr %10) #6
  %16 = load ptr, ptr %9, align 8, !tbaa !36
  %17 = getelementptr inbounds double, ptr %16, i64 2
  %18 = load double, ptr %17, align 8, !tbaa !11
  store double %18, ptr %10, align 8, !tbaa !11
  call void @llvm.lifetime.start.p0(i64 8, ptr %11) #6
  %19 = load ptr, ptr %6, align 8, !tbaa !15
  %20 = getelementptr inbounds nuw %struct._generic_N_Vector, ptr %19, i32 0, i32 0
  %21 = load ptr, ptr %20, align 8, !tbaa !44
  %22 = getelementptr inbounds nuw %struct._N_VectorContent_Serial, ptr %21, i32 0, i32 2
  %23 = load ptr, ptr %22, align 8, !tbaa !47
  %24 = getelementptr inbounds double, ptr %23, i64 0
  %25 = load double, ptr %24, align 8, !tbaa !11
  store double %25, ptr %11, align 8, !tbaa !11
  call void @llvm.lifetime.start.p0(i64 8, ptr %12) #6
  %26 = load ptr, ptr %6, align 8, !tbaa !15
  %27 = getelementptr inbounds nuw %struct._generic_N_Vector, ptr %26, i32 0, i32 0
  %28 = load ptr, ptr %27, align 8, !tbaa !44
  %29 = getelementptr inbounds nuw %struct._N_VectorContent_Serial, ptr %28, i32 0, i32 2
  %30 = load ptr, ptr %29, align 8, !tbaa !47
  %31 = getelementptr inbounds double, ptr %30, i64 1
  %32 = load double, ptr %31, align 8, !tbaa !11
  store double %32, ptr %12, align 8, !tbaa !11
  call void @llvm.lifetime.start.p0(i64 8, ptr %13) #6
  call void @llvm.lifetime.start.p0(i64 8, ptr %14) #6
  %33 = load double, ptr %11, align 8, !tbaa !11
  %34 = load double, ptr %11, align 8, !tbaa !11
  %35 = call double @llvm.fmuladd.f64(double %33, double %34, double -1.000000e+00)
  %36 = load double, ptr %5, align 8, !tbaa !11
  %37 = load ptr, ptr %9, align 8, !tbaa !36
  %38 = call double @r(double noundef %36, ptr noundef %37)
  %39 = fsub double %35, %38
  %40 = load double, ptr %11, align 8, !tbaa !11
  %41 = fmul double 2.000000e+00, %40
  %42 = fdiv double %39, %41
  store double %42, ptr %13, align 8, !tbaa !11
  %43 = load double, ptr %12, align 8, !tbaa !11
  %44 = load double, ptr %12, align 8, !tbaa !11
  %45 = call double @llvm.fmuladd.f64(double %43, double %44, double -2.000000e+00)
  %46 = load double, ptr %5, align 8, !tbaa !11
  %47 = load ptr, ptr %9, align 8, !tbaa !36
  %48 = call double @s(double noundef %46, ptr noundef %47)
  %49 = fsub double %45, %48
  %50 = load double, ptr %12, align 8, !tbaa !11
  %51 = fmul double 2.000000e+00, %50
  %52 = fdiv double %49, %51
  store double %52, ptr %14, align 8, !tbaa !11
  %53 = load ptr, ptr %7, align 8, !tbaa !15
  %54 = getelementptr inbounds nuw %struct._generic_N_Vector, ptr %53, i32 0, i32 0
  %55 = load ptr, ptr %54, align 8, !tbaa !44
  %56 = getelementptr inbounds nuw %struct._N_VectorContent_Serial, ptr %55, i32 0, i32 2
  %57 = load ptr, ptr %56, align 8, !tbaa !47
  %58 = getelementptr inbounds double, ptr %57, i64 0
  store double 0.000000e+00, ptr %58, align 8, !tbaa !11
  %59 = load double, ptr %10, align 8, !tbaa !11
  %60 = load double, ptr %13, align 8, !tbaa !11
  %61 = load double, ptr %14, align 8, !tbaa !11
  %62 = fneg double %61
  %63 = call double @llvm.fmuladd.f64(double %59, double %60, double %62)
  %64 = load double, ptr %5, align 8, !tbaa !11
  %65 = load ptr, ptr %9, align 8, !tbaa !36
  %66 = call double @sdot(double noundef %64, ptr noundef %65)
  %67 = load double, ptr %5, align 8, !tbaa !11
  %68 = load ptr, ptr %9, align 8, !tbaa !36
  %69 = call double @vtrue(double noundef %67, ptr noundef %68)
  %70 = fmul double 2.000000e+00, %69
  %71 = fdiv double %66, %70
  %72 = fadd double %63, %71
  %73 = load ptr, ptr %7, align 8, !tbaa !15
  %74 = getelementptr inbounds nuw %struct._generic_N_Vector, ptr %73, i32 0, i32 0
  %75 = load ptr, ptr %74, align 8, !tbaa !44
  %76 = getelementptr inbounds nuw %struct._N_VectorContent_Serial, ptr %75, i32 0, i32 2
  %77 = load ptr, ptr %76, align 8, !tbaa !47
  %78 = getelementptr inbounds double, ptr %77, i64 1
  store double %72, ptr %78, align 8, !tbaa !11
  call void @llvm.lifetime.end.p0(i64 8, ptr %14) #6
  call void @llvm.lifetime.end.p0(i64 8, ptr %13) #6
  call void @llvm.lifetime.end.p0(i64 8, ptr %12) #6
  call void @llvm.lifetime.end.p0(i64 8, ptr %11) #6
  call void @llvm.lifetime.end.p0(i64 8, ptr %10) #6
  call void @llvm.lifetime.end.p0(i64 8, ptr %9) #6
  ret i32 0
}