; Function Attrs: mustprogress nofree nounwind willreturn memory(readwrite, inaccessiblemem: write) uwtable
define internal noundef i32 @ff(double noundef %0, ptr noundef readonly captures(none) %1, ptr noundef readonly captures(none) %2, ptr noundef readonly captures(none) %3) #5 {
  %5 = getelementptr inbounds nuw i8, ptr %3, i64 16
  %6 = load double, ptr %5, align 8, !tbaa !12
  %7 = load ptr, ptr %1, align 8, !tbaa !18
  %8 = getelementptr inbounds nuw i8, ptr %7, i64 16
  %9 = load ptr, ptr %8, align 8, !tbaa !21
  %10 = load double, ptr %9, align 8, !tbaa !12
  %11 = getelementptr inbounds nuw i8, ptr %9, i64 8
  %12 = load double, ptr %11, align 8, !tbaa !12
  %13 = tail call double @cos(double noundef %0) #9, !tbaa !26
  %14 = getelementptr i8, ptr %3, i64 8
  %.val = load double, ptr %14, align 8, !tbaa !12
  %15 = fmul double %0, %.val
  %16 = tail call double @cos(double noundef %15) #9, !tbaa !26
  %17 = load ptr, ptr %2, align 8, !tbaa !18
  %18 = getelementptr inbounds nuw i8, ptr %17, i64 16
  %19 = load ptr, ptr %18, align 8, !tbaa !21
  store double 0.000000e+00, ptr %19, align 8, !tbaa !12
  %.val24 = load double, ptr %14, align 8, !tbaa !12
  %20 = fmul double %0, %.val24
  %21 = tail call double @sin(double noundef %20) #9, !tbaa !26
  %22 = tail call double @cos(double noundef %20) #9, !tbaa !26
  %23 = fadd double %22, 2.000000e+00
  %24 = fcmp ugt double %23, 0.000000e+00
  br i1 %24, label %25, label %vtrue.exit

25:                                               ; preds = %4
  %26 = tail call double @cos(double noundef %20) #9, !tbaa !26
  %27 = fadd double %26, 2.000000e+00
  %28 = tail call double @sqrt(double noundef %27) #9, !tbaa !26
  %29 = fmul double %28, 2.000000e+00
  br label %vtrue.exit

vtrue.exit:                                       ; preds = %4, %25
  %30 = phi double [ %29, %25 ], [ 0.000000e+00, %4 ]
  %31 = fneg double %.val24
  %32 = fmul double %21, %31
  %33 = tail call double @llvm.fmuladd.f64(double %10, double %10, double -1.000000e+00)
  %34 = fmul double %13, 5.000000e-01
  %35 = fsub double %33, %34
  %36 = fmul double %10, 2.000000e+00
  %37 = fdiv double %35, %36
  %38 = tail call double @llvm.fmuladd.f64(double %12, double %12, double -2.000000e+00)
  %39 = fsub double %38, %16
  %40 = fneg double %39
  %41 = fmul double %12, 2.000000e+00
  %42 = fdiv double %40, %41
  %43 = tail call double @llvm.fmuladd.f64(double %6, double %37, double %42)
  %44 = fdiv double %32, %30
  %45 = fadd double %43, %44
  %46 = getelementptr inbounds nuw i8, ptr %19, i64 8
  store double %45, ptr %46, align 8, !tbaa !12
  ret i32 0
}